(dp0
S'METTS MARK'
p1
(dp2
S'salary'
p3
F365788.0
sS'bonus'
p4
F600000.0
sS'total_stock_value'
p5
F585062.0
sS'exercised_stock_options'
p6
F1297049.0
sS'poi'
p7
I00
sS'deferred_income'
p8
F-151927.0
ssS'BAXTER JOHN C'
p9
(dp10
g3
F267102.0
sg4
F1200000.0
sg5
F10623258.0
sg6
F6680544.0
sg7
I00
sg8
F-1386055.0
ssS'ELLIOTT STEVEN'
p11
(dp12
g3
F170941.0
sg4
F350000.0
sg5
F6678735.0
sg6
F4890344.0
sg7
I00
sg8
F-400729.0
ssS'CORDES WILLIAM R'
p13
(dp14
g3
F258741.0
sg4
F750000.0
sg5
F1038185.0
sg6
F651850.0
sg7
I00
sg8
F-151927.0
ssS'HANNON KEVIN P'
p15
(dp16
g3
F243293.0
sg4
F1500000.0
sg5
F6391065.0
sg6
F5538001.0
sg7
I01
sg8
F-3117011.0
ssS'MORDAUNT KRISTINA M'
p17
(dp18
g3
F267093.0
sg4
F325000.0
sg5
F208510.0
sg6
F1297049.0
sg7
I00
sg8
F-151927.0
ssS'MEYER ROCKFORD G'
p19
(dp20
g3
F258741.0
sg4
F750000.0
sg5
F955873.0
sg6
F493489.0
sg7
I00
sg8
F-151927.0
ssS'MCMAHON JEFFREY'
p21
(dp22
g3
F370448.0
sg4
F2600000.0
sg5
F1662855.0
sg6
F1104054.0
sg7
I00
sg8
F-151927.0
ssS'HORTON STANLEY C'
p23
(dp24
g3
F258741.0
sg4
F750000.0
sg5
F7256648.0
sg6
F5210569.0
sg7
I00
sg8
F-151927.0
ssS'PIPER GREGORY F'
p25
(dp26
g3
F197091.0
sg4
F400000.0
sg5
F880290.0
sg6
F880290.0
sg7
I00
sg8
F-33333.0
ssS'HUMPHREY GENE E'
p27
(dp28
g3
F130724.0
sg4
F750000.0
sg5
F2282768.0
sg6
F2282768.0
sg7
I00
sg8
F-151927.0
ssS'UMANOFF ADAM S'
p29
(dp30
g3
F288589.0
sg4
F788750.0
sg5
F1095040.0
sg6
F1297049.0
sg7
I00
sg8
F-151927.0
ssS'BLACHMAN JEREMY M'
p31
(dp32
g3
F248546.0
sg4
F850000.0
sg5
F954354.0
sg6
F765313.0
sg7
I00
sg8
F-151927.0
ssS'SUNDE MARTIN'
p33
(dp34
g3
F257486.0
sg4
F700000.0
sg5
F698920.0
sg6
F1297049.0
sg7
I00
sg8
F-151927.0
ssS'GIBBS DANA R'
p35
(dp36
g3
F258741.0
sg4
F750000.0
sg5
F2218275.0
sg6
F2218275.0
sg7
I00
sg8
F-151927.0
ssS'LOWRY CHARLES P'
p37
(dp38
g3
F258741.0
sg4
F750000.0
sg5
F372205.0
sg6
F372205.0
sg7
I00
sg8
F-151927.0
ssS'COLWELL WESLEY'
p39
(dp40
g3
F288542.0
sg4
F1200000.0
sg5
F698242.0
sg6
F1297049.0
sg7
I01
sg8
F-144062.0
ssS'MULLER MARK S'
p41
(dp42
g3
F251654.0
sg4
F1100000.0
sg5
F1416848.0
sg6
F1056320.0
sg7
I00
sg8
F-719000.0
ssS'JACKSON CHARLENE R'
p43
(dp44
g3
F288558.0
sg4
F250000.0
sg5
F725735.0
sg6
F185063.0
sg7
I00
sg8
F-151927.0
ssS'WESTFAHL RICHARD K'
p45
(dp46
g3
F63744.0
sg4
F750000.0
sg5
F384930.0
sg6
F1297049.0
sg7
I00
sg8
F-10800.0
ssS'WALTERS GARETH W'
p47
(dp48
g3
F258741.0
sg4
F750000.0
sg5
F1030329.0
sg6
F1030329.0
sg7
I00
sg8
F-151927.0
ssS'WALLS JR ROBERT H'
p49
(dp50
g3
F357091.0
sg4
F850000.0
sg5
F5898997.0
sg6
F4346544.0
sg7
I00
sg8
F-151927.0
ssS'KITCHEN LOUISE'
p51
(dp52
g3
F271442.0
sg4
F3100000.0
sg5
F547143.0
sg6
F81042.0
sg7
I00
sg8
F-151927.0
ssS'CHAN RONNIE'
p53
(dp54
g3
F258741.0
sg4
F750000.0
sg5
F1095040.0
sg6
F1297049.0
sg7
I00
sg8
F-98784.0
ssS'BELFER ROBERT'
p55
(dp56
g3
F258741.0
sg4
F750000.0
sg5
F-44093.0
sg6
F3285.0
sg7
I00
sg8
F-151927.0
ssS'SHANKMAN JEFFREY A'
p57
(dp58
g3
F304110.0
sg4
F2000000.0
sg5
F2072035.0
sg6
F1441898.0
sg7
I00
sg8
F-151927.0
ssS'WODRASKA JOHN'
p59
(dp60
g3
F258741.0
sg4
F750000.0
sg5
F1095040.0
sg6
F1297049.0
sg7
I00
sg8
F-151927.0
ssS'BERGSIEKER RICHARD P'
p61
(dp62
g3
F187922.0
sg4
F250000.0
sg5
F659249.0
sg6
F1297049.0
sg7
I00
sg8
F-485813.0
ssS'URQUHART JOHN A'
p63
(dp64
g3
F258741.0
sg4
F750000.0
sg5
F1095040.0
sg6
F1297049.0
sg7
I00
sg8
F-36666.0
ssS'BIBI PHILIPPE A'
p65
(dp66
g3
F213625.0
sg4
F1000000.0
sg5
F1843816.0
sg6
F1465734.0
sg7
I00
sg8
F-151927.0
ssS'PIRO JIM'
p67
(dp68
g3
F258741.0
sg4
F750000.0
sg5
F47304.0
sg6
F1297049.0
sg7
I00
sg8
F-151927.0
ssS'RIEKER PAULA H'
p69
(dp70
g3
F249201.0
sg4
F700000.0
sg5
F1918887.0
sg6
F1635238.0
sg7
I01
sg8
F-100000.0
ssS'WHALEY DAVID A'
p71
(dp72
g3
F258741.0
sg4
F750000.0
sg5
F98718.0
sg6
F98718.0
sg7
I00
sg8
F-151927.0
ssS'BECK SALLY W'
p73
(dp74
g3
F231330.0
sg4
F700000.0
sg5
F126027.0
sg6
F1297049.0
sg7
I00
sg8
F-151927.0
ssS'HAUG DAVID L'
p75
(dp76
g3
F258741.0
sg4
F750000.0
sg5
F2217299.0
sg6
F1297049.0
sg7
I00
sg8
F-151927.0
ssS'ECHOLS JOHN B'
p77
(dp78
g3
F182245.0
sg4
F200000.0
sg5
F1008941.0
sg6
F601438.0
sg7
I00
sg8
F-151927.0
ssS'MENDELSOHN JOHN'
p79
(dp80
g3
F258741.0
sg4
F750000.0
sg5
F1095040.0
sg6
F1297049.0
sg7
I00
sg8
F-103750.0
ssS'HICKERSON GARY J'
p81
(dp82
g3
F211788.0
sg4
F1700000.0
sg5
F441096.0
sg6
F1297049.0
sg7
I00
sg8
F-151927.0
ssS'CLINE KENNETH W'
p83
(dp84
g3
F258741.0
sg4
F750000.0
sg5
F189518.0
sg6
F1297049.0
sg7
I00
sg8
F-151927.0
ssS'LEWIS RICHARD'
p85
(dp86
g3
F258741.0
sg4
F750000.0
sg5
F850477.0
sg6
F850477.0
sg7
I00
sg8
F-151927.0
ssS'HAYES ROBERT E'
p87
(dp88
g3
F258741.0
sg4
F750000.0
sg5
F151418.0
sg6
F1297049.0
sg7
I00
sg8
F-151927.0
ssS'KOPPER MICHAEL J'
p89
(dp90
g3
F224305.0
sg4
F800000.0
sg5
F985032.0
sg6
F1297049.0
sg7
I01
sg8
F-151927.0
ssS'LEFF DANIEL P'
p91
(dp92
g3
F273746.0
sg4
F1000000.0
sg5
F360528.0
sg6
F1297049.0
sg7
I00
sg8
F-151927.0
ssS'LAVORATO JOHN J'
p93
(dp94
g3
F339288.0
sg4
F8000000.0
sg5
F5167144.0
sg6
F4158995.0
sg7
I00
sg8
F-151927.0
ssS'BERBERIAN DAVID'
p95
(dp96
g3
F216582.0
sg4
F750000.0
sg5
F2493616.0
sg6
F1624396.0
sg7
I00
sg8
F-151927.0
ssS'DETMERING TIMOTHY J'
p97
(dp98
g3
F210500.0
sg4
F425000.0
sg5
F2027865.0
sg6
F2027865.0
sg7
I00
sg8
F-775241.0
ssS'WAKEHAM JOHN'
p99
(dp100
g3
F258741.0
sg4
F750000.0
sg5
F1095040.0
sg6
F1297049.0
sg7
I00
sg8
F-151927.0
ssS'POWERS WILLIAM'
p101
(dp102
g3
F258741.0
sg4
F750000.0
sg5
F1095040.0
sg6
F1297049.0
sg7
I00
sg8
F-17500.0
ssS'GOLD JOSEPH'
p103
(dp104
g3
F272880.0
sg4
F750000.0
sg5
F877611.0
sg6
F436515.0
sg7
I00
sg8
F-151927.0
ssS'BANNANTINE JAMES M'
p105
(dp106
g3
F477.0
sg4
F750000.0
sg5
F5243487.0
sg6
F4046157.0
sg7
I00
sg8
F-5104.0
ssS'DUNCAN JOHN H'
p107
(dp108
g3
F258741.0
sg4
F750000.0
sg5
F371750.0
sg6
F371750.0
sg7
I00
sg8
F-25000.0
ssS'SHAPIRO RICHARD S'
p109
(dp110
g3
F269076.0
sg4
F650000.0
sg5
F987001.0
sg6
F607837.0
sg7
I00
sg8
F-151927.0
ssS'SHERRIFF JOHN R'
p111
(dp112
g3
F428780.0
sg4
F1500000.0
sg5
F3128982.0
sg6
F1835558.0
sg7
I00
sg8
F-151927.0
ssS'SHELBY REX'
p113
(dp114
g3
F211844.0
sg4
F200000.0
sg5
F2493616.0
sg6
F1624396.0
sg7
I01
sg8
F-4167.0
ssS'LEMAISTRE CHARLES'
p115
(dp116
g3
F258741.0
sg4
F750000.0
sg5
F412878.0
sg6
F412878.0
sg7
I00
sg8
F-25000.0
ssS'DEFFNER JOSEPH M'
p117
(dp118
g3
F206121.0
sg4
F600000.0
sg5
F159211.0
sg6
F17378.0
sg7
I00
sg8
F-151927.0
ssS'KISHKILL JOSEPH G'
p119
(dp120
g3
F174246.0
sg4
F750000.0
sg5
F1034346.0
sg6
F1297049.0
sg7
I00
sg8
F-51042.0
ssS'WHALLEY LAWRENCE G'
p121
(dp122
g3
F510364.0
sg4
F3000000.0
sg5
F6079137.0
sg6
F3282960.0
sg7
I00
sg8
F-151927.0
ssS'MCCARTY DANNY J'
p123
(dp124
g3
F258741.0
sg4
F750000.0
sg5
F758931.0
sg6
F664375.0
sg7
I00
sg8
F-151927.0
ssS'MCCONNELL MICHAEL S'
p125
(dp126
g3
F365038.0
sg4
F1100000.0
sg5
F3101279.0
sg6
F1623010.0
sg7
I00
sg8
F-151927.0
ssS'DELAINEY DAVID W'
p127
(dp128
g3
F365163.0
sg4
F3000000.0
sg5
F3614261.0
sg6
F2291113.0
sg7
I01
sg8
F-151927.0
ssS'SULLIVAN-SHAKLOVITZ COLLEEN'
p129
(dp130
g3
F162779.0
sg4
F100000.0
sg5
F1362375.0
sg6
F1362375.0
sg7
I00
sg8
F-151927.0
ssS'WROBEL BRUCE'
p131
(dp132
g3
F258741.0
sg4
F750000.0
sg5
F139130.0
sg6
F139130.0
sg7
I00
sg8
F-151927.0
ssS'LINDHOLM TOD A'
p133
(dp134
g3
F236457.0
sg4
F200000.0
sg5
F3064208.0
sg6
F2549361.0
sg7
I00
sg8
F-151927.0
ssS'MEYER JEROME J'
p135
(dp136
g3
F258741.0
sg4
F750000.0
sg5
F1095040.0
sg6
F1297049.0
sg7
I00
sg8
F-38346.0
ssS'LAY KENNETH L'
p137
(dp138
g3
F1072321.0
sg4
F7000000.0
sg5
F49110078.0
sg6
F34348384.0
sg7
I01
sg8
F-300000.0
ssS'BUTTS ROBERT H'
p139
(dp140
g3
F261516.0
sg4
F750000.0
sg5
F417619.0
sg6
F1297049.0
sg7
I00
sg8
F-75000.0
ssS'OLSON CINDY K'
p141
(dp142
g3
F329078.0
sg4
F750000.0
sg5
F2606763.0
sg6
F1637034.0
sg7
I00
sg8
F-151927.0
ssS'MCDONALD REBECCA'
p143
(dp144
g3
F258741.0
sg4
F750000.0
sg5
F1691366.0
sg6
F757301.0
sg7
I00
sg8
F-151927.0
ssS'CUMBERLAND MICHAEL S'
p145
(dp146
g3
F184899.0
sg4
F325000.0
sg5
F207940.0
sg6
F1297049.0
sg7
I00
sg8
F-151927.0
ssS'GAHN ROBERT S'
p147
(dp148
g3
F192008.0
sg4
F509870.0
sg5
F318607.0
sg6
F83237.0
sg7
I00
sg8
F-1042.0
ssS'MCCLELLAN GEORGE'
p149
(dp150
g3
F263413.0
sg4
F900000.0
sg5
F947861.0
sg6
F506765.0
sg7
I00
sg8
F-125000.0
ssS'HERMANN ROBERT J'
p151
(dp152
g3
F262663.0
sg4
F700000.0
sg5
F668132.0
sg6
F187500.0
sg7
I00
sg8
F-280000.0
ssS'SCRIMSHAW MATTHEW'
p153
(dp154
g3
F258741.0
sg4
F750000.0
sg5
F759557.0
sg6
F759557.0
sg7
I00
sg8
F-151927.0
ssS'GATHMANN WILLIAM D'
p155
(dp156
g3
F258741.0
sg4
F750000.0
sg5
F1945360.0
sg6
F1753766.0
sg7
I00
sg8
F-151927.0
ssS'HAEDICKE MARK E'
p157
(dp158
g3
F374125.0
sg4
F1150000.0
sg5
F803094.0
sg6
F608750.0
sg7
I00
sg8
F-934484.0
ssS'BOWEN JR RAYMOND M'
p159
(dp160
g3
F278601.0
sg4
F1350000.0
sg5
F252055.0
sg6
F1297049.0
sg7
I01
sg8
F-833.0
ssS'GILLIS JOHN'
p161
(dp162
g3
F258741.0
sg4
F750000.0
sg5
F85641.0
sg6
F9803.0
sg7
I00
sg8
F-151927.0
ssS'FITZGERALD JAY L'
p163
(dp164
g3
F199157.0
sg4
F350000.0
sg5
F1621236.0
sg6
F664461.0
sg7
I00
sg8
F-151927.0
ssS'MORAN MICHAEL P'
p165
(dp166
g3
F258741.0
sg4
F750000.0
sg5
F221141.0
sg6
F59539.0
sg7
I00
sg8
F-151927.0
ssS'REDMOND BRIAN L'
p167
(dp168
g3
F96840.0
sg4
F750000.0
sg5
F7890324.0
sg6
F7509039.0
sg7
I00
sg8
F-151927.0
ssS'BAZELIDES PHILIP J'
p169
(dp170
g3
F80818.0
sg4
F750000.0
sg5
F1599641.0
sg6
F1599641.0
sg7
I00
sg8
F-151927.0
ssS'BELDEN TIMOTHY N'
p171
(dp172
g3
F213999.0
sg4
F5249999.0
sg5
F1110705.0
sg6
F953136.0
sg7
I01
sg8
F-2334434.0
ssS'DURAN WILLIAM D'
p173
(dp174
g3
F210692.0
sg4
F750000.0
sg5
F1640910.0
sg6
F1451869.0
sg7
I00
sg8
F-151927.0
ssS'THORN TERENCE H'
p175
(dp176
g3
F222093.0
sg4
F750000.0
sg5
F4817796.0
sg6
F4452476.0
sg7
I00
sg8
F-151927.0
ssS'FASTOW ANDREW S'
p177
(dp178
g3
F440698.0
sg4
F1300000.0
sg5
F1794412.0
sg6
F1297049.0
sg7
I01
sg8
F-1386055.0
ssS'FOY JOE'
p179
(dp180
g3
F258741.0
sg4
F750000.0
sg5
F343434.0
sg6
F343434.0
sg7
I00
sg8
F-151927.0
ssS'CALGER CHRISTOPHER F'
p181
(dp182
g3
F240189.0
sg4
F1250000.0
sg5
F126027.0
sg6
F1297049.0
sg7
I01
sg8
F-262500.0
ssS'RICE KENNETH D'
p183
(dp184
g3
F420636.0
sg4
F1750000.0
sg5
F22542539.0
sg6
F19794175.0
sg7
I01
sg8
F-3504386.0
ssS'KAMINSKI WINCENTY J'
p185
(dp186
g3
F275101.0
sg4
F400000.0
sg5
F976037.0
sg6
F850010.0
sg7
I00
sg8
F-151927.0
ssS'COX DAVID'
p187
(dp188
g3
F314288.0
sg4
F800000.0
sg5
F495633.0
sg6
F117551.0
sg7
I00
sg8
F-41250.0
ssS'OVERDYKE JR JERE C'
p189
(dp190
g3
F94941.0
sg4
F750000.0
sg5
F7307594.0
sg6
F5266578.0
sg7
I00
sg8
F-151927.0
ssS'PEREIRA PAULO V. FERRAZ'
p191
(dp192
g3
F258741.0
sg4
F750000.0
sg5
F1095040.0
sg6
F1297049.0
sg7
I00
sg8
F-101250.0
ssS'STABLER FRANK'
p193
(dp194
g3
F239502.0
sg4
F500000.0
sg5
F511734.0
sg6
F1297049.0
sg7
I00
sg8
F-151927.0
ssS'SKILLING JEFFREY K'
p195
(dp196
g3
F1111258.0
sg4
F5600000.0
sg5
F26093672.0
sg6
F19250000.0
sg7
I01
sg8
F-151927.0
ssS'BLAKE JR. NORMAN P'
p197
(dp198
g3
F258741.0
sg4
F750000.0
sg5
F1095040.0
sg6
F1297049.0
sg7
I00
sg8
F-113784.0
ssS'SHERRICK JEFFREY B'
p199
(dp200
g3
F258741.0
sg4
F750000.0
sg5
F1832468.0
sg6
F1426469.0
sg7
I00
sg8
F-151927.0
ssS'PRENTICE JAMES'
p201
(dp202
g3
F258741.0
sg4
F750000.0
sg5
F1095040.0
sg6
F886231.0
sg7
I00
sg8
F-151927.0
ssS'GRAY RODNEY'
p203
(dp204
g3
F6615.0
sg4
F750000.0
sg5
F1095040.0
sg6
F1297049.0
sg7
I00
sg8
F-151927.0
ssS'PICKERING MARK R'
p205
(dp206
g3
F655037.0
sg4
F300000.0
sg5
F28798.0
sg6
F28798.0
sg7
I00
sg8
F-151927.0
ssS'NOLES JAMES L'
p207
(dp208
g3
F258741.0
sg4
F750000.0
sg5
F368705.0
sg6
F1297049.0
sg7
I00
sg8
F-151927.0
ssS'KEAN STEVEN J'
p209
(dp210
g3
F404338.0
sg4
F1000000.0
sg5
F6153642.0
sg6
F2022048.0
sg7
I00
sg8
F-151927.0
ssS'FOWLER PEGGY'
p211
(dp212
g3
F258741.0
sg4
F750000.0
sg5
F1884748.0
sg6
F1324578.0
sg7
I00
sg8
F-151927.0
ssS'WASAFF GEORGE'
p213
(dp214
g3
F259996.0
sg4
F325000.0
sg5
F2056427.0
sg6
F1668260.0
sg7
I00
sg8
F-583325.0
ssS'WHITE JR THOMAS E'
p215
(dp216
g3
F317543.0
sg4
F450000.0
sg5
F15144123.0
sg6
F1297049.0
sg7
I00
sg8
F-151927.0
ssS'CHRISTODOULOU DIOMEDES'
p217
(dp218
g3
F258741.0
sg4
F750000.0
sg5
F6077885.0
sg6
F5127155.0
sg7
I00
sg8
F-151927.0
ssS'ALLEN PHILLIP K'
p219
(dp220
g3
F201955.0
sg4
F4175000.0
sg5
F1729541.0
sg6
F1729541.0
sg7
I00
sg8
F-3081055.0
ssS'SHARP VICTORIA T'
p221
(dp222
g3
F248146.0
sg4
F600000.0
sg5
F494136.0
sg6
F281073.0
sg7
I00
sg8
F-151927.0
ssS'JAEDICKE ROBERT'
p223
(dp224
g3
F258741.0
sg4
F750000.0
sg5
F431750.0
sg6
F431750.0
sg7
I00
sg8
F-25000.0
ssS'WINOKUR JR. HERBERT S'
p225
(dp226
g3
F258741.0
sg4
F750000.0
sg5
F1095040.0
sg6
F1297049.0
sg7
I00
sg8
F-25000.0
ssS'BROWN MICHAEL'
p227
(dp228
g3
F258741.0
sg4
F750000.0
sg5
F1095040.0
sg6
F1297049.0
sg7
I00
sg8
F-151927.0
ssS'BADUM JAMES P'
p229
(dp230
g3
F258741.0
sg4
F750000.0
sg5
F257817.0
sg6
F257817.0
sg7
I00
sg8
F-151927.0
ssS'HUGHES JAMES A'
p231
(dp232
g3
F258741.0
sg4
F750000.0
sg5
F1118394.0
sg6
F754966.0
sg7
I00
sg8
F-151927.0
ssS'REYNOLDS LAWRENCE'
p233
(dp234
g3
F76399.0
sg4
F100000.0
sg5
F4221891.0
sg6
F4160672.0
sg7
I00
sg8
F-200000.0
ssS'DIMICHELE RICHARD G'
p235
(dp236
g3
F262788.0
sg4
F1000000.0
sg5
F8317782.0
sg6
F8191755.0
sg7
I00
sg8
F-151927.0
ssS'BHATNAGAR SANJAY'
p237
(dp238
g3
F258741.0
sg4
F750000.0
sg5
F1095040.0
sg6
F2604490.0
sg7
I00
sg8
F-151927.0
ssS'CARTER REBECCA C'
p239
(dp240
g3
F261809.0
sg4
F300000.0
sg5
F1095040.0
sg6
F1297049.0
sg7
I00
sg8
F-159792.0
ssS'BUCHANAN HAROLD G'
p241
(dp242
g3
F248017.0
sg4
F500000.0
sg5
F1014505.0
sg6
F825464.0
sg7
I00
sg8
F-151927.0
ssS'YEAP SOON'
p243
(dp244
g3
F258741.0
sg4
F750000.0
sg5
F192758.0
sg6
F192758.0
sg7
I00
sg8
F-151927.0
ssS'MURRAY JULIA H'
p245
(dp246
g3
F229284.0
sg4
F400000.0
sg5
F597461.0
sg6
F400478.0
sg7
I00
sg8
F-151927.0
ssS'GARLAND C KEVIN'
p247
(dp248
g3
F231946.0
sg4
F850000.0
sg5
F896153.0
sg6
F636246.0
sg7
I00
sg8
F-151927.0
ssS'DODSON KEITH'
p249
(dp250
g3
F221003.0
sg4
F70000.0
sg5
F1095040.0
sg6
F1297049.0
sg7
I00
sg8
F-151927.0
ssS'YEAGER F SCOTT'
p251
(dp252
g3
F158403.0
sg4
F750000.0
sg5
F11884758.0
sg6
F8308552.0
sg7
I01
sg8
F-151927.0
ssS'HIRKO JOSEPH'
p253
(dp254
g3
F258741.0
sg4
F750000.0
sg5
F30766064.0
sg6
F30766064.0
sg7
I01
sg8
F-151927.0
ssS'DIETRICH JANET R'
p255
(dp256
g3
F250100.0
sg4
F600000.0
sg5
F1865087.0
sg6
F1550019.0
sg7
I00
sg8
F-151927.0
ssS'DERRICK JR. JAMES V'
p257
(dp258
g3
F492375.0
sg4
F800000.0
sg5
F8831913.0
sg6
F8831913.0
sg7
I00
sg8
F-1284000.0
ssS'FREVERT MARK A'
p259
(dp260
g3
F1060932.0
sg4
F2000000.0
sg5
F14622185.0
sg6
F10433518.0
sg7
I00
sg8
F-3367011.0
ssS'PAI LOU L'
p261
(dp262
g3
F261879.0
sg4
F1000000.0
sg5
F23817930.0
sg6
F15364167.0
sg7
I00
sg8
F-151927.0
ssS'BAY FRANKLIN R'
p263
(dp264
g3
F239671.0
sg4
F400000.0
sg5
F63014.0
sg6
F1297049.0
sg7
I00
sg8
F-201641.0
ssS'HAYSLETT RODERICK J'
p265
(dp266
g3
F258741.0
sg4
F750000.0
sg5
F346663.0
sg6
F1297049.0
sg7
I00
sg8
F-151927.0
ssS'FUGH JOHN L'
p267
(dp268
g3
F258741.0
sg4
F750000.0
sg5
F176378.0
sg6
F176378.0
sg7
I00
sg8
F-151927.0
ssS'FALLON JAMES B'
p269
(dp270
g3
F304588.0
sg4
F2500000.0
sg5
F2332399.0
sg6
F940257.0
sg7
I00
sg8
F-151927.0
ssS'KOENIG MARK E'
p271
(dp272
g3
F309946.0
sg4
F700000.0
sg5
F1920055.0
sg6
F671737.0
sg7
I01
sg8
F-151927.0
ssS'SAVAGE FRANK'
p273
(dp274
g3
F258741.0
sg4
F750000.0
sg5
F1095040.0
sg6
F1297049.0
sg7
I00
sg8
F-121284.0
ssS'IZZO LAWRENCE L'
p275
(dp276
g3
F85274.0
sg4
F750000.0
sg5
F5819980.0
sg6
F2165172.0
sg7
I00
sg8
F-151927.0
ssS'TILNEY ELIZABETH A'
p277
(dp278
g3
F247338.0
sg4
F300000.0
sg5
F1168042.0
sg6
F591250.0
sg7
I00
sg8
F-575000.0
ssS'MARTIN AMANDA K'
p279
(dp280
g3
F349487.0
sg4
F750000.0
sg5
F2070306.0
sg6
F2070306.0
sg7
I00
sg8
F-151927.0
ssS'BUY RICHARD B'
p281
(dp282
g3
F330546.0
sg4
F900000.0
sg5
F3444470.0
sg6
F2542813.0
sg7
I00
sg8
F-694862.0
ssS'GRAMM WENDY L'
p283
(dp284
g3
F258741.0
sg4
F750000.0
sg5
F1095040.0
sg6
F1297049.0
sg7
I00
sg8
F-151927.0
ssS'CAUSEY RICHARD A'
p285
(dp286
g3
F415189.0
sg4
F1000000.0
sg5
F2502063.0
sg6
F1297049.0
sg7
I01
sg8
F-235000.0
ssS'TAYLOR MITCHELL S'
p287
(dp288
g3
F265214.0
sg4
F600000.0
sg5
F3745048.0
sg6
F3181250.0
sg7
I00
sg8
F-151927.0
ssS'DONAHUE JR JEFFREY M'
p289
(dp290
g3
F278601.0
sg4
F800000.0
sg5
F1080988.0
sg6
F765920.0
sg7
I00
sg8
F-300000.0
ssS'GLISAN JR BEN F'
p291
(dp292
g3
F274975.0
sg4
F600000.0
sg5
F778546.0
sg6
F384728.0
sg7
I01
sg8
F-151927.0
ss.