(dp0
S'METTS MARK'
p1
(dp2
S'bonus'
p3
F600000.0
sS'exercised_stock_options'
p4
F1297049.0
sS'salary'
p5
F365788.0
sS'total_stock_value'
p6
F585062.0
sS'poi'
p7
I00
ssS'BAXTER JOHN C'
p8
(dp9
g3
F1200000.0
sg4
F6680544.0
sg5
F267102.0
sg6
F10623258.0
sg7
I00
ssS'ELLIOTT STEVEN'
p10
(dp11
g3
F350000.0
sg4
F4890344.0
sg5
F170941.0
sg6
F6678735.0
sg7
I00
ssS'CORDES WILLIAM R'
p12
(dp13
g3
F750000.0
sg4
F651850.0
sg5
F258741.0
sg6
F1038185.0
sg7
I00
ssS'HANNON KEVIN P'
p14
(dp15
g3
F1500000.0
sg4
F5538001.0
sg5
F243293.0
sg6
F6391065.0
sg7
I01
ssS'MORDAUNT KRISTINA M'
p16
(dp17
g3
F325000.0
sg4
F1297049.0
sg5
F267093.0
sg6
F208510.0
sg7
I00
ssS'MEYER ROCKFORD G'
p18
(dp19
g3
F750000.0
sg4
F493489.0
sg5
F258741.0
sg6
F955873.0
sg7
I00
ssS'MCMAHON JEFFREY'
p20
(dp21
g3
F2600000.0
sg4
F1104054.0
sg5
F370448.0
sg6
F1662855.0
sg7
I00
ssS'HORTON STANLEY C'
p22
(dp23
g3
F750000.0
sg4
F5210569.0
sg5
F258741.0
sg6
F7256648.0
sg7
I00
ssS'PIPER GREGORY F'
p24
(dp25
g3
F400000.0
sg4
F880290.0
sg5
F197091.0
sg6
F880290.0
sg7
I00
ssS'HUMPHREY GENE E'
p26
(dp27
g3
F750000.0
sg4
F2282768.0
sg5
F130724.0
sg6
F2282768.0
sg7
I00
ssS'UMANOFF ADAM S'
p28
(dp29
g3
F788750.0
sg4
F1297049.0
sg5
F288589.0
sg6
F1095040.0
sg7
I00
ssS'BLACHMAN JEREMY M'
p30
(dp31
g3
F850000.0
sg4
F765313.0
sg5
F248546.0
sg6
F954354.0
sg7
I00
ssS'SUNDE MARTIN'
p32
(dp33
g3
F700000.0
sg4
F1297049.0
sg5
F257486.0
sg6
F698920.0
sg7
I00
ssS'GIBBS DANA R'
p34
(dp35
g3
F750000.0
sg4
F2218275.0
sg5
F258741.0
sg6
F2218275.0
sg7
I00
ssS'LOWRY CHARLES P'
p36
(dp37
g3
F750000.0
sg4
F372205.0
sg5
F258741.0
sg6
F372205.0
sg7
I00
ssS'COLWELL WESLEY'
p38
(dp39
g3
F1200000.0
sg4
F1297049.0
sg5
F288542.0
sg6
F698242.0
sg7
I01
ssS'MULLER MARK S'
p40
(dp41
g3
F1100000.0
sg4
F1056320.0
sg5
F251654.0
sg6
F1416848.0
sg7
I00
ssS'JACKSON CHARLENE R'
p42
(dp43
g3
F250000.0
sg4
F185063.0
sg5
F288558.0
sg6
F725735.0
sg7
I00
ssS'WESTFAHL RICHARD K'
p44
(dp45
g3
F750000.0
sg4
F1297049.0
sg5
F63744.0
sg6
F384930.0
sg7
I00
ssS'WALTERS GARETH W'
p46
(dp47
g3
F750000.0
sg4
F1030329.0
sg5
F258741.0
sg6
F1030329.0
sg7
I00
ssS'WALLS JR ROBERT H'
p48
(dp49
g3
F850000.0
sg4
F4346544.0
sg5
F357091.0
sg6
F5898997.0
sg7
I00
ssS'KITCHEN LOUISE'
p50
(dp51
g3
F3100000.0
sg4
F81042.0
sg5
F271442.0
sg6
F547143.0
sg7
I00
ssS'CHAN RONNIE'
p52
(dp53
g3
F750000.0
sg4
F1297049.0
sg5
F258741.0
sg6
F1095040.0
sg7
I00
ssS'BELFER ROBERT'
p54
(dp55
g3
F750000.0
sg4
F3285.0
sg5
F258741.0
sg6
F-44093.0
sg7
I00
ssS'SHANKMAN JEFFREY A'
p56
(dp57
g3
F2000000.0
sg4
F1441898.0
sg5
F304110.0
sg6
F2072035.0
sg7
I00
ssS'WODRASKA JOHN'
p58
(dp59
g3
F750000.0
sg4
F1297049.0
sg5
F258741.0
sg6
F1095040.0
sg7
I00
ssS'BERGSIEKER RICHARD P'
p60
(dp61
g3
F250000.0
sg4
F1297049.0
sg5
F187922.0
sg6
F659249.0
sg7
I00
ssS'URQUHART JOHN A'
p62
(dp63
g3
F750000.0
sg4
F1297049.0
sg5
F258741.0
sg6
F1095040.0
sg7
I00
ssS'BIBI PHILIPPE A'
p64
(dp65
g3
F1000000.0
sg4
F1465734.0
sg5
F213625.0
sg6
F1843816.0
sg7
I00
ssS'PIRO JIM'
p66
(dp67
g3
F750000.0
sg4
F1297049.0
sg5
F258741.0
sg6
F47304.0
sg7
I00
ssS'RIEKER PAULA H'
p68
(dp69
g3
F700000.0
sg4
F1635238.0
sg5
F249201.0
sg6
F1918887.0
sg7
I01
ssS'WHALEY DAVID A'
p70
(dp71
g3
F750000.0
sg4
F98718.0
sg5
F258741.0
sg6
F98718.0
sg7
I00
ssS'BECK SALLY W'
p72
(dp73
g3
F700000.0
sg4
F1297049.0
sg5
F231330.0
sg6
F126027.0
sg7
I00
ssS'HAUG DAVID L'
p74
(dp75
g3
F750000.0
sg4
F1297049.0
sg5
F258741.0
sg6
F2217299.0
sg7
I00
ssS'ECHOLS JOHN B'
p76
(dp77
g3
F200000.0
sg4
F601438.0
sg5
F182245.0
sg6
F1008941.0
sg7
I00
ssS'MENDELSOHN JOHN'
p78
(dp79
g3
F750000.0
sg4
F1297049.0
sg5
F258741.0
sg6
F1095040.0
sg7
I00
ssS'HICKERSON GARY J'
p80
(dp81
g3
F1700000.0
sg4
F1297049.0
sg5
F211788.0
sg6
F441096.0
sg7
I00
ssS'CLINE KENNETH W'
p82
(dp83
g3
F750000.0
sg4
F1297049.0
sg5
F258741.0
sg6
F189518.0
sg7
I00
ssS'LEWIS RICHARD'
p84
(dp85
g3
F750000.0
sg4
F850477.0
sg5
F258741.0
sg6
F850477.0
sg7
I00
ssS'HAYES ROBERT E'
p86
(dp87
g3
F750000.0
sg4
F1297049.0
sg5
F258741.0
sg6
F151418.0
sg7
I00
ssS'KOPPER MICHAEL J'
p88
(dp89
g3
F800000.0
sg4
F1297049.0
sg5
F224305.0
sg6
F985032.0
sg7
I01
ssS'LEFF DANIEL P'
p90
(dp91
g3
F1000000.0
sg4
F1297049.0
sg5
F273746.0
sg6
F360528.0
sg7
I00
ssS'LAVORATO JOHN J'
p92
(dp93
g3
F8000000.0
sg4
F4158995.0
sg5
F339288.0
sg6
F5167144.0
sg7
I00
ssS'BERBERIAN DAVID'
p94
(dp95
g3
F750000.0
sg4
F1624396.0
sg5
F216582.0
sg6
F2493616.0
sg7
I00
ssS'DETMERING TIMOTHY J'
p96
(dp97
g3
F425000.0
sg4
F2027865.0
sg5
F210500.0
sg6
F2027865.0
sg7
I00
ssS'WAKEHAM JOHN'
p98
(dp99
g3
F750000.0
sg4
F1297049.0
sg5
F258741.0
sg6
F1095040.0
sg7
I00
ssS'POWERS WILLIAM'
p100
(dp101
g3
F750000.0
sg4
F1297049.0
sg5
F258741.0
sg6
F1095040.0
sg7
I00
ssS'GOLD JOSEPH'
p102
(dp103
g3
F750000.0
sg4
F436515.0
sg5
F272880.0
sg6
F877611.0
sg7
I00
ssS'BANNANTINE JAMES M'
p104
(dp105
g3
F750000.0
sg4
F4046157.0
sg5
F477.0
sg6
F5243487.0
sg7
I00
ssS'DUNCAN JOHN H'
p106
(dp107
g3
F750000.0
sg4
F371750.0
sg5
F258741.0
sg6
F371750.0
sg7
I00
ssS'SHAPIRO RICHARD S'
p108
(dp109
g3
F650000.0
sg4
F607837.0
sg5
F269076.0
sg6
F987001.0
sg7
I00
ssS'SHERRIFF JOHN R'
p110
(dp111
g3
F1500000.0
sg4
F1835558.0
sg5
F428780.0
sg6
F3128982.0
sg7
I00
ssS'SHELBY REX'
p112
(dp113
g3
F200000.0
sg4
F1624396.0
sg5
F211844.0
sg6
F2493616.0
sg7
I01
ssS'LEMAISTRE CHARLES'
p114
(dp115
g3
F750000.0
sg4
F412878.0
sg5
F258741.0
sg6
F412878.0
sg7
I00
ssS'DEFFNER JOSEPH M'
p116
(dp117
g3
F600000.0
sg4
F17378.0
sg5
F206121.0
sg6
F159211.0
sg7
I00
ssS'KISHKILL JOSEPH G'
p118
(dp119
g3
F750000.0
sg4
F1297049.0
sg5
F174246.0
sg6
F1034346.0
sg7
I00
ssS'WHALLEY LAWRENCE G'
p120
(dp121
g3
F3000000.0
sg4
F3282960.0
sg5
F510364.0
sg6
F6079137.0
sg7
I00
ssS'MCCARTY DANNY J'
p122
(dp123
g3
F750000.0
sg4
F664375.0
sg5
F258741.0
sg6
F758931.0
sg7
I00
ssS'MCCONNELL MICHAEL S'
p124
(dp125
g3
F1100000.0
sg4
F1623010.0
sg5
F365038.0
sg6
F3101279.0
sg7
I00
ssS'DELAINEY DAVID W'
p126
(dp127
g3
F3000000.0
sg4
F2291113.0
sg5
F365163.0
sg6
F3614261.0
sg7
I01
ssS'SULLIVAN-SHAKLOVITZ COLLEEN'
p128
(dp129
g3
F100000.0
sg4
F1362375.0
sg5
F162779.0
sg6
F1362375.0
sg7
I00
ssS'WROBEL BRUCE'
p130
(dp131
g3
F750000.0
sg4
F139130.0
sg5
F258741.0
sg6
F139130.0
sg7
I00
ssS'LINDHOLM TOD A'
p132
(dp133
g3
F200000.0
sg4
F2549361.0
sg5
F236457.0
sg6
F3064208.0
sg7
I00
ssS'MEYER JEROME J'
p134
(dp135
g3
F750000.0
sg4
F1297049.0
sg5
F258741.0
sg6
F1095040.0
sg7
I00
ssS'LAY KENNETH L'
p136
(dp137
g3
F7000000.0
sg4
F34348384.0
sg5
F1072321.0
sg6
F49110078.0
sg7
I01
ssS'BUTTS ROBERT H'
p138
(dp139
g3
F750000.0
sg4
F1297049.0
sg5
F261516.0
sg6
F417619.0
sg7
I00
ssS'OLSON CINDY K'
p140
(dp141
g3
F750000.0
sg4
F1637034.0
sg5
F329078.0
sg6
F2606763.0
sg7
I00
ssS'MCDONALD REBECCA'
p142
(dp143
g3
F750000.0
sg4
F757301.0
sg5
F258741.0
sg6
F1691366.0
sg7
I00
ssS'CUMBERLAND MICHAEL S'
p144
(dp145
g3
F325000.0
sg4
F1297049.0
sg5
F184899.0
sg6
F207940.0
sg7
I00
ssS'GAHN ROBERT S'
p146
(dp147
g3
F509870.0
sg4
F83237.0
sg5
F192008.0
sg6
F318607.0
sg7
I00
ssS'MCCLELLAN GEORGE'
p148
(dp149
g3
F900000.0
sg4
F506765.0
sg5
F263413.0
sg6
F947861.0
sg7
I00
ssS'HERMANN ROBERT J'
p150
(dp151
g3
F700000.0
sg4
F187500.0
sg5
F262663.0
sg6
F668132.0
sg7
I00
ssS'SCRIMSHAW MATTHEW'
p152
(dp153
g3
F750000.0
sg4
F759557.0
sg5
F258741.0
sg6
F759557.0
sg7
I00
ssS'GATHMANN WILLIAM D'
p154
(dp155
g3
F750000.0
sg4
F1753766.0
sg5
F258741.0
sg6
F1945360.0
sg7
I00
ssS'HAEDICKE MARK E'
p156
(dp157
g3
F1150000.0
sg4
F608750.0
sg5
F374125.0
sg6
F803094.0
sg7
I00
ssS'BOWEN JR RAYMOND M'
p158
(dp159
g3
F1350000.0
sg4
F1297049.0
sg5
F278601.0
sg6
F252055.0
sg7
I01
ssS'GILLIS JOHN'
p160
(dp161
g3
F750000.0
sg4
F9803.0
sg5
F258741.0
sg6
F85641.0
sg7
I00
ssS'FITZGERALD JAY L'
p162
(dp163
g3
F350000.0
sg4
F664461.0
sg5
F199157.0
sg6
F1621236.0
sg7
I00
ssS'MORAN MICHAEL P'
p164
(dp165
g3
F750000.0
sg4
F59539.0
sg5
F258741.0
sg6
F221141.0
sg7
I00
ssS'REDMOND BRIAN L'
p166
(dp167
g3
F750000.0
sg4
F7509039.0
sg5
F96840.0
sg6
F7890324.0
sg7
I00
ssS'BAZELIDES PHILIP J'
p168
(dp169
g3
F750000.0
sg4
F1599641.0
sg5
F80818.0
sg6
F1599641.0
sg7
I00
ssS'BELDEN TIMOTHY N'
p170
(dp171
g3
F5249999.0
sg4
F953136.0
sg5
F213999.0
sg6
F1110705.0
sg7
I01
ssS'DURAN WILLIAM D'
p172
(dp173
g3
F750000.0
sg4
F1451869.0
sg5
F210692.0
sg6
F1640910.0
sg7
I00
ssS'THORN TERENCE H'
p174
(dp175
g3
F750000.0
sg4
F4452476.0
sg5
F222093.0
sg6
F4817796.0
sg7
I00
ssS'FASTOW ANDREW S'
p176
(dp177
g3
F1300000.0
sg4
F1297049.0
sg5
F440698.0
sg6
F1794412.0
sg7
I01
ssS'FOY JOE'
p178
(dp179
g3
F750000.0
sg4
F343434.0
sg5
F258741.0
sg6
F343434.0
sg7
I00
ssS'CALGER CHRISTOPHER F'
p180
(dp181
g3
F1250000.0
sg4
F1297049.0
sg5
F240189.0
sg6
F126027.0
sg7
I01
ssS'RICE KENNETH D'
p182
(dp183
g3
F1750000.0
sg4
F19794175.0
sg5
F420636.0
sg6
F22542539.0
sg7
I01
ssS'KAMINSKI WINCENTY J'
p184
(dp185
g3
F400000.0
sg4
F850010.0
sg5
F275101.0
sg6
F976037.0
sg7
I00
ssS'COX DAVID'
p186
(dp187
g3
F800000.0
sg4
F117551.0
sg5
F314288.0
sg6
F495633.0
sg7
I00
ssS'OVERDYKE JR JERE C'
p188
(dp189
g3
F750000.0
sg4
F5266578.0
sg5
F94941.0
sg6
F7307594.0
sg7
I00
ssS'PEREIRA PAULO V. FERRAZ'
p190
(dp191
g3
F750000.0
sg4
F1297049.0
sg5
F258741.0
sg6
F1095040.0
sg7
I00
ssS'STABLER FRANK'
p192
(dp193
g3
F500000.0
sg4
F1297049.0
sg5
F239502.0
sg6
F511734.0
sg7
I00
ssS'SKILLING JEFFREY K'
p194
(dp195
g3
F5600000.0
sg4
F19250000.0
sg5
F1111258.0
sg6
F26093672.0
sg7
I01
ssS'BLAKE JR. NORMAN P'
p196
(dp197
g3
F750000.0
sg4
F1297049.0
sg5
F258741.0
sg6
F1095040.0
sg7
I00
ssS'SHERRICK JEFFREY B'
p198
(dp199
g3
F750000.0
sg4
F1426469.0
sg5
F258741.0
sg6
F1832468.0
sg7
I00
ssS'PRENTICE JAMES'
p200
(dp201
g3
F750000.0
sg4
F886231.0
sg5
F258741.0
sg6
F1095040.0
sg7
I00
ssS'GRAY RODNEY'
p202
(dp203
g3
F750000.0
sg4
F1297049.0
sg5
F6615.0
sg6
F1095040.0
sg7
I00
ssS'PICKERING MARK R'
p204
(dp205
g3
F300000.0
sg4
F28798.0
sg5
F655037.0
sg6
F28798.0
sg7
I00
ssS'NOLES JAMES L'
p206
(dp207
g3
F750000.0
sg4
F1297049.0
sg5
F258741.0
sg6
F368705.0
sg7
I00
ssS'KEAN STEVEN J'
p208
(dp209
g3
F1000000.0
sg4
F2022048.0
sg5
F404338.0
sg6
F6153642.0
sg7
I00
ssS'FOWLER PEGGY'
p210
(dp211
g3
F750000.0
sg4
F1324578.0
sg5
F258741.0
sg6
F1884748.0
sg7
I00
ssS'WASAFF GEORGE'
p212
(dp213
g3
F325000.0
sg4
F1668260.0
sg5
F259996.0
sg6
F2056427.0
sg7
I00
ssS'WHITE JR THOMAS E'
p214
(dp215
g3
F450000.0
sg4
F1297049.0
sg5
F317543.0
sg6
F15144123.0
sg7
I00
ssS'CHRISTODOULOU DIOMEDES'
p216
(dp217
g3
F750000.0
sg4
F5127155.0
sg5
F258741.0
sg6
F6077885.0
sg7
I00
ssS'ALLEN PHILLIP K'
p218
(dp219
g3
F4175000.0
sg4
F1729541.0
sg5
F201955.0
sg6
F1729541.0
sg7
I00
ssS'SHARP VICTORIA T'
p220
(dp221
g3
F600000.0
sg4
F281073.0
sg5
F248146.0
sg6
F494136.0
sg7
I00
ssS'JAEDICKE ROBERT'
p222
(dp223
g3
F750000.0
sg4
F431750.0
sg5
F258741.0
sg6
F431750.0
sg7
I00
ssS'WINOKUR JR. HERBERT S'
p224
(dp225
g3
F750000.0
sg4
F1297049.0
sg5
F258741.0
sg6
F1095040.0
sg7
I00
ssS'BROWN MICHAEL'
p226
(dp227
g3
F750000.0
sg4
F1297049.0
sg5
F258741.0
sg6
F1095040.0
sg7
I00
ssS'BADUM JAMES P'
p228
(dp229
g3
F750000.0
sg4
F257817.0
sg5
F258741.0
sg6
F257817.0
sg7
I00
ssS'HUGHES JAMES A'
p230
(dp231
g3
F750000.0
sg4
F754966.0
sg5
F258741.0
sg6
F1118394.0
sg7
I00
ssS'REYNOLDS LAWRENCE'
p232
(dp233
g3
F100000.0
sg4
F4160672.0
sg5
F76399.0
sg6
F4221891.0
sg7
I00
ssS'DIMICHELE RICHARD G'
p234
(dp235
g3
F1000000.0
sg4
F8191755.0
sg5
F262788.0
sg6
F8317782.0
sg7
I00
ssS'BHATNAGAR SANJAY'
p236
(dp237
g3
F750000.0
sg4
F2604490.0
sg5
F258741.0
sg6
F1095040.0
sg7
I00
ssS'CARTER REBECCA C'
p238
(dp239
g3
F300000.0
sg4
F1297049.0
sg5
F261809.0
sg6
F1095040.0
sg7
I00
ssS'BUCHANAN HAROLD G'
p240
(dp241
g3
F500000.0
sg4
F825464.0
sg5
F248017.0
sg6
F1014505.0
sg7
I00
ssS'YEAP SOON'
p242
(dp243
g3
F750000.0
sg4
F192758.0
sg5
F258741.0
sg6
F192758.0
sg7
I00
ssS'MURRAY JULIA H'
p244
(dp245
g3
F400000.0
sg4
F400478.0
sg5
F229284.0
sg6
F597461.0
sg7
I00
ssS'GARLAND C KEVIN'
p246
(dp247
g3
F850000.0
sg4
F636246.0
sg5
F231946.0
sg6
F896153.0
sg7
I00
ssS'DODSON KEITH'
p248
(dp249
g3
F70000.0
sg4
F1297049.0
sg5
F221003.0
sg6
F1095040.0
sg7
I00
ssS'YEAGER F SCOTT'
p250
(dp251
g3
F750000.0
sg4
F8308552.0
sg5
F158403.0
sg6
F11884758.0
sg7
I01
ssS'HIRKO JOSEPH'
p252
(dp253
g3
F750000.0
sg4
F30766064.0
sg5
F258741.0
sg6
F30766064.0
sg7
I01
ssS'DIETRICH JANET R'
p254
(dp255
g3
F600000.0
sg4
F1550019.0
sg5
F250100.0
sg6
F1865087.0
sg7
I00
ssS'DERRICK JR. JAMES V'
p256
(dp257
g3
F800000.0
sg4
F8831913.0
sg5
F492375.0
sg6
F8831913.0
sg7
I00
ssS'FREVERT MARK A'
p258
(dp259
g3
F2000000.0
sg4
F10433518.0
sg5
F1060932.0
sg6
F14622185.0
sg7
I00
ssS'PAI LOU L'
p260
(dp261
g3
F1000000.0
sg4
F15364167.0
sg5
F261879.0
sg6
F23817930.0
sg7
I00
ssS'BAY FRANKLIN R'
p262
(dp263
g3
F400000.0
sg4
F1297049.0
sg5
F239671.0
sg6
F63014.0
sg7
I00
ssS'HAYSLETT RODERICK J'
p264
(dp265
g3
F750000.0
sg4
F1297049.0
sg5
F258741.0
sg6
F346663.0
sg7
I00
ssS'FUGH JOHN L'
p266
(dp267
g3
F750000.0
sg4
F176378.0
sg5
F258741.0
sg6
F176378.0
sg7
I00
ssS'FALLON JAMES B'
p268
(dp269
g3
F2500000.0
sg4
F940257.0
sg5
F304588.0
sg6
F2332399.0
sg7
I00
ssS'KOENIG MARK E'
p270
(dp271
g3
F700000.0
sg4
F671737.0
sg5
F309946.0
sg6
F1920055.0
sg7
I01
ssS'SAVAGE FRANK'
p272
(dp273
g3
F750000.0
sg4
F1297049.0
sg5
F258741.0
sg6
F1095040.0
sg7
I00
ssS'IZZO LAWRENCE L'
p274
(dp275
g3
F750000.0
sg4
F2165172.0
sg5
F85274.0
sg6
F5819980.0
sg7
I00
ssS'TILNEY ELIZABETH A'
p276
(dp277
g3
F300000.0
sg4
F591250.0
sg5
F247338.0
sg6
F1168042.0
sg7
I00
ssS'MARTIN AMANDA K'
p278
(dp279
g3
F750000.0
sg4
F2070306.0
sg5
F349487.0
sg6
F2070306.0
sg7
I00
ssS'BUY RICHARD B'
p280
(dp281
g3
F900000.0
sg4
F2542813.0
sg5
F330546.0
sg6
F3444470.0
sg7
I00
ssS'GRAMM WENDY L'
p282
(dp283
g3
F750000.0
sg4
F1297049.0
sg5
F258741.0
sg6
F1095040.0
sg7
I00
ssS'CAUSEY RICHARD A'
p284
(dp285
g3
F1000000.0
sg4
F1297049.0
sg5
F415189.0
sg6
F2502063.0
sg7
I01
ssS'TAYLOR MITCHELL S'
p286
(dp287
g3
F600000.0
sg4
F3181250.0
sg5
F265214.0
sg6
F3745048.0
sg7
I00
ssS'DONAHUE JR JEFFREY M'
p288
(dp289
g3
F800000.0
sg4
F765920.0
sg5
F278601.0
sg6
F1080988.0
sg7
I00
ssS'GLISAN JR BEN F'
p290
(dp291
g3
F600000.0
sg4
F384728.0
sg5
F274975.0
sg6
F778546.0
sg7
I01
ss.